target datalayout = "e-m:e-p270:32:32-p271:32:32-p272:64:64-i64:64-i128:128-f80:128-n8:16:32:64-S128"
target triple = "x86_64-pc-linux-gnu"

; Function Attrs: nounwind uwtable
define internal void @hor_down_32x32_c(ptr noundef %0, i64 noundef %1, ptr noundef %2, ptr noundef %3) #1 {
  %5 = alloca ptr, align 8
  %6 = alloca i64, align 8
  %7 = alloca ptr, align 8
  %8 = alloca ptr, align 8
  %9 = alloca ptr, align 8
  %10 = alloca ptr, align 8
  %11 = alloca ptr, align 8
  %12 = alloca i32, align 4
  %13 = alloca i32, align 4
  %14 = alloca [94 x i16], align 16
  store ptr %0, ptr %5, align 8, !tbaa !10
  store i64 %1, ptr %6, align 8, !tbaa !12
  store ptr %2, ptr %7, align 8, !tbaa !10
  store ptr %3, ptr %8, align 8, !tbaa !10
  call void @llvm.lifetime.start.p0(i64 8, ptr %9) #9
  %15 = load ptr, ptr %5, align 8, !tbaa !10
  store ptr %15, ptr %9, align 8, !tbaa !14
  call void @llvm.lifetime.start.p0(i64 8, ptr %10) #9
  %16 = load ptr, ptr %8, align 8, !tbaa !10
  store ptr %16, ptr %10, align 8, !tbaa !14
  call void @llvm.lifetime.start.p0(i64 8, ptr %11) #9
  %17 = load ptr, ptr %7, align 8, !tbaa !10
  store ptr %17, ptr %11, align 8, !tbaa !14
  call void @llvm.lifetime.start.p0(i64 4, ptr %12) #9
  call void @llvm.lifetime.start.p0(i64 4, ptr %13) #9
  call void @llvm.lifetime.start.p0(i64 188, ptr %14) #9
  %18 = load i64, ptr %6, align 8, !tbaa !12
  %19 = udiv i64 %18, 2
  store i64 %19, ptr %6, align 8, !tbaa !12
  store i32 0, ptr %12, align 4, !tbaa !19
  br label %20

20:                                               ; preds = %108, %4
  %21 = load i32, ptr %12, align 4, !tbaa !19
  %22 = icmp slt i32 %21, 30
  br i1 %22, label %23, label %111

23:                                               ; preds = %20
  %24 = load ptr, ptr %11, align 8, !tbaa !14
  %25 = load i32, ptr %12, align 4, !tbaa !19
  %26 = add nsw i32 %25, 1
  %27 = sext i32 %26 to i64
  %28 = getelementptr inbounds i16, ptr %24, i64 %27
  %29 = load i16, ptr %28, align 2, !tbaa !17
  %30 = zext i16 %29 to i32
  %31 = load ptr, ptr %11, align 8, !tbaa !14
  %32 = load i32, ptr %12, align 4, !tbaa !19
  %33 = add nsw i32 %32, 0
  %34 = sext i32 %33 to i64
  %35 = getelementptr inbounds i16, ptr %31, i64 %34
  %36 = load i16, ptr %35, align 2, !tbaa !17
  %37 = zext i16 %36 to i32
  %38 = add nsw i32 %30, %37
  %39 = add nsw i32 %38, 1
  %40 = ashr i32 %39, 1
  %41 = trunc i32 %40 to i16
  %42 = load i32, ptr %12, align 4, !tbaa !19
  %43 = mul nsw i32 %42, 2
  %44 = sext i32 %43 to i64
  %45 = getelementptr inbounds [94 x i16], ptr %14, i64 0, i64 %44
  store i16 %41, ptr %45, align 2, !tbaa !17
  %46 = load ptr, ptr %11, align 8, !tbaa !14
  %47 = load i32, ptr %12, align 4, !tbaa !19
  %48 = add nsw i32 %47, 2
  %49 = sext i32 %48 to i64
  %50 = getelementptr inbounds i16, ptr %46, i64 %49
  %51 = load i16, ptr %50, align 2, !tbaa !17
  %52 = zext i16 %51 to i32
  %53 = load ptr, ptr %11, align 8, !tbaa !14
  %54 = load i32, ptr %12, align 4, !tbaa !19
  %55 = add nsw i32 %54, 1
  %56 = sext i32 %55 to i64
  %57 = getelementptr inbounds i16, ptr %53, i64 %56
  %58 = load i16, ptr %57, align 2, !tbaa !17
  %59 = zext i16 %58 to i32
  %60 = mul nsw i32 %59, 2
  %61 = add nsw i32 %52, %60
  %62 = load ptr, ptr %11, align 8, !tbaa !14
  %63 = load i32, ptr %12, align 4, !tbaa !19
  %64 = add nsw i32 %63, 0
  %65 = sext i32 %64 to i64
  %66 = getelementptr inbounds i16, ptr %62, i64 %65
  %67 = load i16, ptr %66, align 2, !tbaa !17
  %68 = zext i16 %67 to i32
  %69 = add nsw i32 %61, %68
  %70 = add nsw i32 %69, 2
  %71 = ashr i32 %70, 2
  %72 = trunc i32 %71 to i16
  %73 = load i32, ptr %12, align 4, !tbaa !19
  %74 = mul nsw i32 %73, 2
  %75 = add nsw i32 %74, 1
  %76 = sext i32 %75 to i64
  %77 = getelementptr inbounds [94 x i16], ptr %14, i64 0, i64 %76
  store i16 %72, ptr %77, align 2, !tbaa !17
  %78 = load ptr, ptr %10, align 8, !tbaa !14
  %79 = load i32, ptr %12, align 4, !tbaa !19
  %80 = sub nsw i32 %79, 1
  %81 = sext i32 %80 to i64
  %82 = getelementptr inbounds i16, ptr %78, i64 %81
  %83 = load i16, ptr %82, align 2, !tbaa !17
  %84 = zext i16 %83 to i32
  %85 = load ptr, ptr %10, align 8, !tbaa !14
  %86 = load i32, ptr %12, align 4, !tbaa !19
  %87 = sext i32 %86 to i64
  %88 = getelementptr inbounds i16, ptr %85, i64 %87
  %89 = load i16, ptr %88, align 2, !tbaa !17
  %90 = zext i16 %89 to i32
  %91 = mul nsw i32 %90, 2
  %92 = add nsw i32 %84, %91
  %93 = load ptr, ptr %10, align 8, !tbaa !14
  %94 = load i32, ptr %12, align 4, !tbaa !19
  %95 = add nsw i32 %94, 1
  %96 = sext i32 %95 to i64
  %97 = getelementptr inbounds i16, ptr %93, i64 %96
  %98 = load i16, ptr %97, align 2, !tbaa !17
  %99 = zext i16 %98 to i32
  %100 = add nsw i32 %92, %99
  %101 = add nsw i32 %100, 2
  %102 = ashr i32 %101, 2
  %103 = trunc i32 %102 to i16
  %104 = load i32, ptr %12, align 4, !tbaa !19
  %105 = add nsw i32 64, %104
  %106 = sext i32 %105 to i64
  %107 = getelementptr inbounds [94 x i16], ptr %14, i64 0, i64 %106
  store i16 %103, ptr %107, align 2, !tbaa !17
  br label %108

108:                                              ; preds = %23
  %109 = load i32, ptr %12, align 4, !tbaa !19
  %110 = add nsw i32 %109, 1
  store i32 %110, ptr %12, align 4, !tbaa !19
  br label %20, !llvm.loop !79

111:                                              ; preds = %20
  %112 = load ptr, ptr %10, align 8, !tbaa !14
  %113 = getelementptr inbounds i16, ptr %112, i64 -1
  %114 = load i16, ptr %113, align 2, !tbaa !17
  %115 = zext i16 %114 to i32
  %116 = load ptr, ptr %11, align 8, !tbaa !14
  %117 = getelementptr inbounds i16, ptr %116, i64 31
  %118 = load i16, ptr %117, align 2, !tbaa !17
  %119 = zext i16 %118 to i32
  %120 = add nsw i32 %115, %119
  %121 = add nsw i32 %120, 1
  %122 = ashr i32 %121, 1
  %123 = trunc i32 %122 to i16
  %124 = getelementptr inbounds [94 x i16], ptr %14, i64 0, i64 62
  store i16 %123, ptr %124, align 4, !tbaa !17
  %125 = load ptr, ptr %11, align 8, !tbaa !14
  %126 = getelementptr inbounds i16, ptr %125, i64 31
  %127 = load i16, ptr %126, align 2, !tbaa !17
  %128 = zext i16 %127 to i32
  %129 = load ptr, ptr %11, align 8, !tbaa !14
  %130 = getelementptr inbounds i16, ptr %129, i64 30
  %131 = load i16, ptr %130, align 2, !tbaa !17
  %132 = zext i16 %131 to i32
  %133 = add nsw i32 %128, %132
  %134 = add nsw i32 %133, 1
  %135 = ashr i32 %134, 1
  %136 = trunc i32 %135 to i16
  %137 = getelementptr inbounds [94 x i16], ptr %14, i64 0, i64 60
  store i16 %136, ptr %137, align 8, !tbaa !17
  %138 = load ptr, ptr %10, align 8, !tbaa !14
  %139 = getelementptr inbounds i16, ptr %138, i64 0
  %140 = load i16, ptr %139, align 2, !tbaa !17
  %141 = zext i16 %140 to i32
  %142 = load ptr, ptr %10, align 8, !tbaa !14
  %143 = getelementptr inbounds i16, ptr %142, i64 -1
  %144 = load i16, ptr %143, align 2, !tbaa !17
  %145 = zext i16 %144 to i32
  %146 = mul nsw i32 %145, 2
  %147 = add nsw i32 %141, %146
  %148 = load ptr, ptr %11, align 8, !tbaa !14
  %149 = getelementptr inbounds i16, ptr %148, i64 31
  %150 = load i16, ptr %149, align 2, !tbaa !17
  %151 = zext i16 %150 to i32
  %152 = add nsw i32 %147, %151
  %153 = add nsw i32 %152, 2
  %154 = ashr i32 %153, 2
  %155 = trunc i32 %154 to i16
  %156 = getelementptr inbounds [94 x i16], ptr %14, i64 0, i64 63
  store i16 %155, ptr %156, align 2, !tbaa !17
  %157 = load ptr, ptr %10, align 8, !tbaa !14
  %158 = getelementptr inbounds i16, ptr %157, i64 -1
  %159 = load i16, ptr %158, align 2, !tbaa !17
  %160 = zext i16 %159 to i32
  %161 = load ptr, ptr %11, align 8, !tbaa !14
  %162 = getelementptr inbounds i16, ptr %161, i64 31
  %163 = load i16, ptr %162, align 2, !tbaa !17
  %164 = zext i16 %163 to i32
  %165 = mul nsw i32 %164, 2
  %166 = add nsw i32 %160, %165
  %167 = load ptr, ptr %11, align 8, !tbaa !14
  %168 = getelementptr inbounds i16, ptr %167, i64 30
  %169 = load i16, ptr %168, align 2, !tbaa !17
  %170 = zext i16 %169 to i32
  %171 = add nsw i32 %166, %170
  %172 = add nsw i32 %171, 2
  %173 = ashr i32 %172, 2
  %174 = trunc i32 %173 to i16
  %175 = getelementptr inbounds [94 x i16], ptr %14, i64 0, i64 61
  store i16 %174, ptr %175, align 2, !tbaa !17
  store i32 0, ptr %13, align 4, !tbaa !19
  br label %176

176:                                              ; preds = %194, %111
  %177 = load i32, ptr %13, align 4, !tbaa !19
  %178 = icmp slt i32 %177, 32
  br i1 %178, label %179, label %197

179:                                              ; preds = %176
  %180 = load ptr, ptr %9, align 8, !tbaa !14
  %181 = load i32, ptr %13, align 4, !tbaa !19
  %182 = sext i32 %181 to i64
  %183 = load i64, ptr %6, align 8, !tbaa !12
  %184 = mul nsw i64 %182, %183
  %185 = getelementptr inbounds i16, ptr %180, i64 %184
  %186 = getelementptr inbounds [94 x i16], ptr %14, i64 0, i64 0
  %187 = getelementptr inbounds i16, ptr %186, i64 64
  %188 = getelementptr inbounds i16, ptr %187, i64 -2
  %189 = load i32, ptr %13, align 4, !tbaa !19
  %190 = mul nsw i32 %189, 2
  %191 = sext i32 %190 to i64
  %192 = sub i64 0, %191
  %193 = getelementptr inbounds i16, ptr %188, i64 %192
  call void @llvm.memcpy.p0.p0.i64(ptr align 2 %185, ptr align 2 %193, i64 64, i1 false)
  br label %194

194:                                              ; preds = %179
  %195 = load i32, ptr %13, align 4, !tbaa !19
  %196 = add nsw i32 %195, 1
  store i32 %196, ptr %13, align 4, !tbaa !19
  br label %176, !llvm.loop !80

197:                                              ; preds = %176
  call void @llvm.lifetime.end.p0(i64 188, ptr %14) #9
  call void @llvm.lifetime.end.p0(i64 4, ptr %13) #9
  call void @llvm.lifetime.end.p0(i64 4, ptr %12) #9
  call void @llvm.lifetime.end.p0(i64 8, ptr %11) #9
  call void @llvm.lifetime.end.p0(i64 8, ptr %10) #9
  call void @llvm.lifetime.end.p0(i64 8, ptr %9) #9
  ret void
}