; Function Attrs: nofree norecurse nosync nounwind memory(argmem: readwrite) uwtable
define internal void @hor_down_32x32_c(ptr noundef writeonly captures(none) %0, i64 noundef %1, ptr noundef readonly captures(none) %2, ptr noundef readonly captures(none) %3) #2 {
  %5 = alloca [94 x i16], align 16
  call void @llvm.lifetime.start.p0(i64 188, ptr nonnull %5) #12
  %.pre = load i16, ptr %2, align 2, !tbaa !9
  %.pre48 = load i16, ptr %3, align 2, !tbaa !9
  %invariant.gep = getelementptr inbounds nuw i8, ptr %2, i64 4
  %invariant.gep49 = getelementptr i8, ptr %3, i64 -2
  br label %6

6:                                                ; preds = %4, %6
  %7 = phi i16 [ %.pre48, %4 ], [ %34, %6 ]
  %8 = phi i16 [ %.pre, %4 ], [ %10, %6 ]
  %indvars.iv = phi i64 [ 0, %4 ], [ %indvars.iv.next, %6 ]
  %indvars.iv.next = add nuw nsw i64 %indvars.iv, 1
  %9 = getelementptr inbounds nuw i16, ptr %2, i64 %indvars.iv.next
  %10 = load i16, ptr %9, align 2, !tbaa !9
  %11 = zext i16 %10 to i32
  %12 = zext i16 %8 to i32
  %13 = add nuw nsw i32 %11, 1
  %14 = add nuw nsw i32 %13, %12
  %15 = lshr i32 %14, 1
  %16 = trunc nuw i32 %15 to i16
  %17 = shl nuw nsw i64 %indvars.iv, 1
  %18 = getelementptr inbounds nuw [94 x i16], ptr %5, i64 0, i64 %17
  store i16 %16, ptr %18, align 4, !tbaa !9
  %gep = getelementptr inbounds nuw i16, ptr %invariant.gep, i64 %indvars.iv
  %19 = load i16, ptr %gep, align 2, !tbaa !9
  %20 = zext i16 %19 to i32
  %21 = shl nuw nsw i32 %11, 1
  %22 = add nuw nsw i32 %21, 2
  %23 = add nuw nsw i32 %22, %12
  %24 = add nuw nsw i32 %23, %20
  %25 = lshr i32 %24, 2
  %26 = trunc nuw i32 %25 to i16
  %27 = or disjoint i64 %17, 1
  %28 = getelementptr inbounds nuw [94 x i16], ptr %5, i64 0, i64 %27
  store i16 %26, ptr %28, align 2, !tbaa !9
  %gep50 = getelementptr i16, ptr %invariant.gep49, i64 %indvars.iv
  %29 = load i16, ptr %gep50, align 2, !tbaa !9
  %30 = zext i16 %29 to i32
  %31 = zext i16 %7 to i32
  %32 = shl nuw nsw i32 %31, 1
  %33 = getelementptr inbounds nuw i16, ptr %3, i64 %indvars.iv.next
  %34 = load i16, ptr %33, align 2, !tbaa !9
  %35 = zext i16 %34 to i32
  %36 = add nuw nsw i32 %30, 2
  %37 = add nuw nsw i32 %36, %32
  %38 = add nuw nsw i32 %37, %35
  %39 = lshr i32 %38, 2
  %40 = trunc nuw i32 %39 to i16
  %41 = or disjoint i64 %indvars.iv, 64
  %42 = getelementptr inbounds nuw [94 x i16], ptr %5, i64 0, i64 %41
  store i16 %40, ptr %42, align 2, !tbaa !9
  %exitcond.not = icmp eq i64 %indvars.iv.next, 30
  br i1 %exitcond.not, label %43, label %6, !llvm.loop !70

43:                                               ; preds = %6
  %44 = lshr i64 %1, 1
  %45 = getelementptr inbounds i8, ptr %3, i64 -2
  %46 = load i16, ptr %45, align 2, !tbaa !9
  %47 = zext i16 %46 to i32
  %48 = getelementptr inbounds nuw i8, ptr %2, i64 62
  %49 = load i16, ptr %48, align 2, !tbaa !9
  %50 = zext i16 %49 to i32
  %51 = add nuw nsw i32 %50, 1
  %52 = add nuw nsw i32 %51, %47
  %53 = lshr i32 %52, 1
  %54 = trunc nuw i32 %53 to i16
  %55 = getelementptr inbounds nuw i8, ptr %5, i64 124
  store i16 %54, ptr %55, align 4, !tbaa !9
  %56 = getelementptr inbounds nuw i8, ptr %2, i64 60
  %57 = load i16, ptr %56, align 2, !tbaa !9
  %58 = zext i16 %57 to i32
  %59 = add nuw nsw i32 %51, %58
  %60 = lshr i32 %59, 1
  %61 = trunc nuw i32 %60 to i16
  %62 = getelementptr inbounds nuw i8, ptr %5, i64 120
  store i16 %61, ptr %62, align 8, !tbaa !9
  %63 = zext i16 %.pre48 to i32
  %64 = shl nuw nsw i32 %47, 1
  %65 = add nuw nsw i32 %64, 2
  %66 = add nuw nsw i32 %65, %50
  %67 = add nuw nsw i32 %66, %63
  %68 = lshr i32 %67, 2
  %69 = trunc nuw i32 %68 to i16
  %70 = getelementptr inbounds nuw i8, ptr %5, i64 126
  store i16 %69, ptr %70, align 2, !tbaa !9
  %71 = shl nuw nsw i32 %50, 1
  %72 = add nuw nsw i32 %47, 2
  %73 = add nuw nsw i32 %72, %71
  %74 = add nuw nsw i32 %73, %58
  %75 = lshr i32 %74, 2
  %76 = trunc nuw i32 %75 to i16
  %77 = getelementptr inbounds nuw i8, ptr %5, i64 122
  store i16 %76, ptr %77, align 2, !tbaa !9
  br label %78

78:                                               ; preds = %43, %78
  %indvars.iv44 = phi i64 [ 0, %43 ], [ %indvars.iv.next45, %78 ]
  %79 = mul nuw nsw i64 %44, %indvars.iv44
  %80 = getelementptr inbounds nuw i16, ptr %0, i64 %79
  %.idx = mul nsw i64 %indvars.iv44, -4
  %81 = getelementptr inbounds i8, ptr %55, i64 %.idx
  call void @llvm.memcpy.p0.p0.i64(ptr noundef nonnull align 2 dereferenceable(64) %80, ptr noundef nonnull align 4 dereferenceable(64) %81, i64 64, i1 false)
  %indvars.iv.next45 = add nuw nsw i64 %indvars.iv44, 1
  %exitcond47.not = icmp eq i64 %indvars.iv.next45, 32
  br i1 %exitcond47.not, label %82, label %78, !llvm.loop !71

82:                                               ; preds = %78
  call void @llvm.lifetime.end.p0(i64 188, ptr nonnull %5) #12
  ret void
}